target datalayout = "e-m:e-p270:32:32-p271:32:32-p272:64:64-i64:64-i128:128-f80:128-n8:16:32:64-S128"
target triple = "x86_64-pc-linux-gnu"

; Function Attrs: nounwind uwtable
define hidden ptr @lexbor_str_data_find_lowercase(ptr noundef %0, i64 noundef %1) #0 {
  %3 = alloca ptr, align 8
  %4 = alloca ptr, align 8
  %5 = alloca i64, align 8
  store ptr %0, ptr %4, align 8
  store i64 %1, ptr %5, align 8
  br label %6

6:                                                ; preds = %30, %2
  %7 = load i64, ptr %5, align 8
  %8 = icmp ne i64 %7, 0
  br i1 %8, label %9, label %31

9:                                                ; preds = %6
  %10 = load i64, ptr %5, align 8
  %11 = add i64 %10, -1
  store i64 %11, ptr %5, align 8
  %12 = load ptr, ptr %4, align 8
  %13 = load i64, ptr %5, align 8
  %14 = getelementptr inbounds i8, ptr %12, i64 %13
  %15 = load i8, ptr %14, align 1
  %16 = zext i8 %15 to i32
  %17 = load ptr, ptr %4, align 8
  %18 = load i64, ptr %5, align 8
  %19 = getelementptr inbounds i8, ptr %17, i64 %18
  %20 = load i8, ptr %19, align 1
  %21 = zext i8 %20 to i64
  %22 = getelementptr inbounds [256 x i8], ptr @lexbor_str_res_map_lowercase, i64 0, i64 %21
  %23 = load i8, ptr %22, align 1
  %24 = zext i8 %23 to i32
  %25 = icmp eq i32 %16, %24
  br i1 %25, label %26, label %30

26:                                               ; preds = %9
  %27 = load ptr, ptr %4, align 8
  %28 = load i64, ptr %5, align 8
  %29 = getelementptr inbounds i8, ptr %27, i64 %28
  store ptr %29, ptr %3, align 8
  br label %32

30:                                               ; preds = %9
  br label %6

31:                                               ; preds = %6
  store ptr null, ptr %3, align 8
  br label %32

32:                                               ; preds = %31, %26
  %33 = load ptr, ptr %3, align 8
  ret ptr %33
}